target datalayout = "e-m:e-p270:32:32-p271:32:32-p272:64:64-i64:64-i128:128-f80:128-n8:16:32:64-S128"
target triple = "x86_64-pc-linux-gnu"

%"struct.folly::NetworkSocket" = type { i32 }
%"class.folly::EventHandler" = type { ptr, %"class.folly::EventBaseEvent", ptr }
%"class.folly::EventBaseEvent" = type { %struct.event, ptr, ptr, ptr, %"struct.folly::EventCallback" }
%struct.event = type { %struct.event_callback, %union.anon.0, i32, ptr, %union.anon.2, i16, i16, %struct.timeval }
%struct.event_callback = type { %struct.anon, i16, i8, i8, %union.anon, ptr }
%struct.anon = type { ptr, ptr }
%union.anon = type { ptr }
%union.anon.0 = type { %struct.anon.1 }
%struct.anon.1 = type { ptr, ptr }
%union.anon.2 = type { %struct.anon.3 }
%struct.anon.3 = type { %struct.anon.4, %struct.timeval }
%struct.anon.4 = type { ptr, ptr }
%struct.timeval = type { i64, i64 }
%"struct.folly::EventCallback" = type { i32, %union.anon.7 }
%union.anon.7 = type { ptr }

@__func__._ZN5folly12EventHandler15changeHandlerFDENS_13NetworkSocketE = private unnamed_addr constant [16 x i8] c"changeHandlerFD\00", align 1

; Function Attrs: mustprogress uwtable
define linkonce_odr void @_ZN5folly14EventBaseEvent12eb_event_setEisPFvisPvES1_(ptr noundef nonnull align 8 dereferenceable(168) %0, i32 noundef %1, i16 noundef signext %2, ptr noundef %3, ptr noundef %4) #1 comdat align 2 {
  %6 = alloca ptr, align 8
  %7 = alloca i32, align 4
  %8 = alloca i16, align 2
  %9 = alloca ptr, align 8
  %10 = alloca ptr, align 8
  store ptr %0, ptr %6, align 8, !tbaa !33
  store i32 %1, ptr %7, align 4, !tbaa !38
  store i16 %2, ptr %8, align 2, !tbaa !39
  store ptr %3, ptr %9, align 8, !tbaa !40
  store ptr %4, ptr %10, align 8, !tbaa !40
  %11 = load ptr, ptr %6, align 8
  %12 = getelementptr inbounds nuw %"class.folly::EventBaseEvent", ptr %11, i32 0, i32 0
  %13 = load i32, ptr %7, align 4, !tbaa !38
  %14 = load i16, ptr %8, align 2, !tbaa !39
  %15 = load ptr, ptr %9, align 8, !tbaa !40
  %16 = load ptr, ptr %10, align 8, !tbaa !40
  call void @event_set(ptr noundef %12, i32 noundef %13, i16 noundef signext %14, ptr noundef %15, ptr noundef %16)
  ret void
}

; Function Attrs: mustprogress nounwind uwtable
define linkonce_odr noundef ptr @_ZNK5folly14EventBaseEvent10eb_ev_baseEv(ptr noundef nonnull align 8 dereferenceable(168) %0) #0 comdat align 2 {
  %2 = alloca ptr, align 8
  store ptr %0, ptr %2, align 8, !tbaa !33
  %3 = load ptr, ptr %2, align 8
  %4 = getelementptr inbounds nuw %"class.folly::EventBaseEvent", ptr %3, i32 0, i32 1
  %5 = load ptr, ptr %4, align 8, !tbaa !35
  ret ptr %5
}

; Function Attrs: mustprogress uwtable
define void @_ZN5folly12EventHandler15changeHandlerFDENS_13NetworkSocketE(ptr noundef nonnull align 8 dereferenceable(184) %0, i32 %1) #1 align 2 {
  %3 = alloca %"struct.folly::NetworkSocket", align 4
  %4 = alloca ptr, align 8
  %5 = alloca ptr, align 8
  %6 = getelementptr inbounds nuw %"struct.folly::NetworkSocket", ptr %3, i32 0, i32 0
  store i32 %1, ptr %6, align 4
  store ptr %0, ptr %4, align 8, !tbaa !7
  %7 = load ptr, ptr %4, align 8
  call void @_ZN5folly12EventHandler19ensureNotRegisteredEPKc(ptr noundef nonnull align 8 dereferenceable(184) %7, ptr noundef @__func__._ZN5folly12EventHandler15changeHandlerFDENS_13NetworkSocketE)
  call void @llvm.lifetime.start.p0(i64 8, ptr %5) #14
  %8 = getelementptr inbounds nuw %"class.folly::EventHandler", ptr %7, i32 0, i32 1
  %9 = call noundef ptr @_ZNK5folly14EventBaseEvent10eb_ev_baseEv(ptr noundef nonnull align 8 dereferenceable(168) %8)
  store ptr %9, ptr %5, align 8, !tbaa !12
  %10 = getelementptr inbounds nuw %"class.folly::EventHandler", ptr %7, i32 0, i32 1
  %11 = getelementptr inbounds nuw %"struct.folly::NetworkSocket", ptr %3, i32 0, i32 0
  %12 = load i32, ptr %11, align 4, !tbaa !16
  call void @_ZN5folly14EventBaseEvent12eb_event_setEisPFvisPvES1_(ptr noundef nonnull align 8 dereferenceable(168) %10, i32 noundef %12, i16 noundef signext 0, ptr noundef @_ZN5folly12EventHandler16libeventCallbackEisPv, ptr noundef %7)
  %13 = getelementptr inbounds nuw %"class.folly::EventHandler", ptr %7, i32 0, i32 1
  %14 = load ptr, ptr %5, align 8, !tbaa !12
  call void @_ZN5folly14EventBaseEvent10eb_ev_baseEPNS_9EventBaseE(ptr noundef nonnull align 8 dereferenceable(168) %13, ptr noundef %14)
  call void @llvm.lifetime.end.p0(i64 8, ptr %5) #14
  ret void
}