; Function Attrs: mustprogress uwtable
define void @_ZN5folly12EventHandler15changeHandlerFDENS_13NetworkSocketE(ptr noundef nonnull align 8 dereferenceable(184) %0, i32 %1) local_unnamed_addr #1 align 2 {
  tail call void @_ZN5folly12EventHandler19ensureNotRegisteredEPKc(ptr noundef nonnull align 8 dereferenceable(184) %0, ptr noundef nonnull @__func__._ZN5folly12EventHandler15changeHandlerFDENS_13NetworkSocketE)
  %3 = getelementptr inbounds nuw i8, ptr %0, i64 8
  %4 = getelementptr inbounds nuw i8, ptr %0, i64 136
  %5 = load ptr, ptr %4, align 8, !tbaa !32
  tail call void @event_set(ptr noundef nonnull align 8 dereferenceable(168) %3, i32 noundef %1, i16 noundef signext 0, ptr noundef nonnull @_ZN5folly12EventHandler16libeventCallbackEisPv, ptr noundef nonnull %0)
  tail call void @_ZN5folly14EventBaseEvent10eb_ev_baseEPNS_9EventBaseE(ptr noundef nonnull align 8 dereferenceable(168) %3, ptr noundef %5)
  ret void
}